; Function Attrs: nounwind uwtable
define dso_local i64 @pg_stat_get_db_conflict_all(ptr noundef readonly captures(none) %0) local_unnamed_addr #0 {
  %2 = getelementptr inbounds nuw i8, ptr %0, i64 32
  %3 = load i64, ptr %2, align 8
  %4 = trunc i64 %3 to i32
  %5 = tail call ptr @pgstat_fetch_stat_dbentry(i32 noundef %4) #9
  %6 = icmp eq ptr %5, null
  br i1 %6, label %25, label %7

7:                                                ; preds = %1
  %8 = getelementptr inbounds nuw i8, ptr %5, i64 80
  %9 = load i64, ptr %8, align 8
  %10 = getelementptr inbounds nuw i8, ptr %5, i64 88
  %11 = load i64, ptr %10, align 8
  %12 = add i64 %11, %9
  %13 = getelementptr inbounds nuw i8, ptr %5, i64 96
  %14 = load i64, ptr %13, align 8
  %15 = add i64 %12, %14
  %16 = getelementptr inbounds nuw i8, ptr %5, i64 104
  %17 = load i64, ptr %16, align 8
  %18 = add i64 %15, %17
  %19 = getelementptr inbounds nuw i8, ptr %5, i64 112
  %20 = load i64, ptr %19, align 8
  %21 = add i64 %18, %20
  %22 = getelementptr inbounds nuw i8, ptr %5, i64 120
  %23 = load i64, ptr %22, align 8
  %24 = add i64 %21, %23
  br label %25

25:                                               ; preds = %1, %7
  %.0 = phi i64 [ %24, %7 ], [ 0, %1 ]
  ret i64 %.0
}